target datalayout = "e-m:e-p270:32:32-p271:32:32-p272:64:64-i64:64-i128:128-f80:128-n8:16:32:64-S128"
target triple = "x86_64-pc-linux-gnu"

%struct.nstime_t = type { i64, i32 }

@hf_gryphon_reserved = internal global i32 0, align 4
@hf_gryphon_data_header_length = internal global i32 0, align 4
@hf_gryphon_data_header_length_bits = internal global i32 0, align 4
@hf_gryphon_data_data_length = internal global i32 0, align 4
@hf_gryphon_data_extra_data_length = internal global i32 0, align 4
@hf_gryphon_data_mode = internal global i32 0, align 4
@hf_gryphon_data_priority = internal global i32 0, align 4
@hf_gryphon_data_error_status = internal global i32 0, align 4
@hf_gryphon_data_time = internal global i32 0, align 4
@hf_gryphon_data_context = internal global i32 0, align 4
@hf_gryphon_data_header_data = internal global i32 0, align 4
@hf_gryphon_data_data = internal global i32 0, align 4
@hf_gryphon_data_extra_data = internal global i32 0, align 4
@hf_gryphon_data_padding = internal global i32 0, align 4
@ett_gryphon_data_header = internal global i32 0, align 4
@ett_gryphon_flags = internal global i32 0, align 4
@ett_gryphon_data_body = internal global i32 0, align 4
@.str.1111 = private unnamed_addr constant [15 x i8] c"Message header\00", align 1
@.str.1112 = private unnamed_addr constant [13 x i8] c"Message Body\00", align 1

; Function Attrs: null_pointer_is_valid sspstrong uwtable
define internal i32 @decode_data(ptr noundef %0, i32 noundef %1, ptr noundef %2) #0 {
  %4 = alloca ptr, align 8
  %5 = alloca i32, align 4
  %6 = alloca ptr, align 8
  %7 = alloca ptr, align 8
  %8 = alloca i32, align 4
  %9 = alloca i32, align 4
  %10 = alloca i32, align 4
  %11 = alloca i32, align 4
  %12 = alloca i32, align 4
  %13 = alloca %struct.nstime_t, align 8
  store ptr %0, ptr %4, align 8
  store i32 %1, ptr %5, align 4
  store ptr %2, ptr %6, align 8
  call void @llvm.lifetime.start.p0(i64 8, ptr %7) #7
  call void @llvm.lifetime.start.p0(i64 4, ptr %8) #7
  call void @llvm.lifetime.start.p0(i64 4, ptr %9) #7
  call void @llvm.lifetime.start.p0(i64 4, ptr %10) #7
  call void @llvm.lifetime.start.p0(i64 4, ptr %11) #7
  call void @llvm.lifetime.start.p0(i64 4, ptr %12) #7
  call void @llvm.lifetime.start.p0(i64 16, ptr %13) #7
  %14 = load ptr, ptr %4, align 8
  %15 = load i32, ptr %5, align 4
  %16 = add i32 %15, 0
  %17 = call zeroext i8 @tvb_get_uint8(ptr noundef %14, i32 noundef %16)
  %18 = zext i8 %17 to i32
  store i32 %18, ptr %8, align 4
  %19 = load ptr, ptr %4, align 8
  %20 = load i32, ptr %5, align 4
  %21 = add i32 %20, 2
  %22 = call zeroext i16 @tvb_get_ntohs(ptr noundef %19, i32 noundef %21)
  %23 = zext i16 %22 to i32
  store i32 %23, ptr %9, align 4
  %24 = load ptr, ptr %4, align 8
  %25 = load i32, ptr %5, align 4
  %26 = add i32 %25, 4
  %27 = call zeroext i8 @tvb_get_uint8(ptr noundef %24, i32 noundef %26)
  %28 = zext i8 %27 to i32
  store i32 %28, ptr %10, align 4
  %29 = load i32, ptr %8, align 4
  %30 = load i32, ptr %9, align 4
  %31 = add i32 %29, %30
  %32 = load i32, ptr %10, align 4
  %33 = add i32 %31, %32
  %34 = add i32 %33, 3
  %35 = srem i32 %34, 4
  %36 = sub i32 3, %35
  store i32 %36, ptr %12, align 4
  %37 = load i32, ptr %8, align 4
  %38 = load i32, ptr %9, align 4
  %39 = add i32 %37, %38
  %40 = load i32, ptr %10, align 4
  %41 = add i32 %39, %40
  %42 = load i32, ptr %12, align 4
  %43 = add i32 %41, %42
  %44 = add i32 %43, 16
  store i32 %44, ptr %11, align 4
  %45 = load ptr, ptr %6, align 8
  %46 = load ptr, ptr %4, align 8
  %47 = load i32, ptr %5, align 4
  %48 = load i32, ptr @ett_gryphon_data_header, align 4
  %49 = call ptr @proto_tree_add_subtree(ptr noundef %45, ptr noundef %46, i32 noundef %47, i32 noundef 16, i32 noundef %48, ptr noundef null, ptr noundef @.str.1111)
  store ptr %49, ptr %7, align 8
  %50 = load ptr, ptr %7, align 8
  %51 = load i32, ptr @hf_gryphon_data_header_length, align 4
  %52 = load ptr, ptr %4, align 8
  %53 = load i32, ptr %5, align 4
  %54 = call ptr @proto_tree_add_item(ptr noundef %50, i32 noundef %51, ptr noundef %52, i32 noundef %53, i32 noundef 1, i32 noundef 0)
  %55 = load ptr, ptr %7, align 8
  %56 = load i32, ptr @hf_gryphon_data_header_length_bits, align 4
  %57 = load ptr, ptr %4, align 8
  %58 = load i32, ptr %5, align 4
  %59 = add i32 %58, 1
  %60 = call ptr @proto_tree_add_item(ptr noundef %55, i32 noundef %56, ptr noundef %57, i32 noundef %59, i32 noundef 1, i32 noundef 0)
  %61 = load ptr, ptr %7, align 8
  %62 = load i32, ptr @hf_gryphon_data_data_length, align 4
  %63 = load ptr, ptr %4, align 8
  %64 = load i32, ptr %5, align 4
  %65 = add i32 %64, 2
  %66 = call ptr @proto_tree_add_item(ptr noundef %61, i32 noundef %62, ptr noundef %63, i32 noundef %65, i32 noundef 2, i32 noundef 0)
  %67 = load ptr, ptr %7, align 8
  %68 = load i32, ptr @hf_gryphon_data_extra_data_length, align 4
  %69 = load ptr, ptr %4, align 8
  %70 = load i32, ptr %5, align 4
  %71 = add i32 %70, 4
  %72 = call ptr @proto_tree_add_item(ptr noundef %67, i32 noundef %68, ptr noundef %69, i32 noundef %71, i32 noundef 1, i32 noundef 0)
  %73 = load ptr, ptr %7, align 8
  %74 = load ptr, ptr %4, align 8
  %75 = load i32, ptr %5, align 4
  %76 = add i32 %75, 5
  %77 = load i32, ptr @hf_gryphon_data_mode, align 4
  %78 = load i32, ptr @ett_gryphon_flags, align 4
  %79 = call ptr @proto_tree_add_bitmask(ptr noundef %73, ptr noundef %74, i32 noundef %76, i32 noundef %77, i32 noundef %78, ptr noundef @decode_data.data_mode_flags, i32 noundef 0)
  %80 = load ptr, ptr %7, align 8
  %81 = load i32, ptr @hf_gryphon_data_priority, align 4
  %82 = load ptr, ptr %4, align 8
  %83 = load i32, ptr %5, align 4
  %84 = add i32 %83, 6
  %85 = call ptr @proto_tree_add_item(ptr noundef %80, i32 noundef %81, ptr noundef %82, i32 noundef %84, i32 noundef 1, i32 noundef 0)
  %86 = load ptr, ptr %7, align 8
  %87 = load i32, ptr @hf_gryphon_data_error_status, align 4
  %88 = load ptr, ptr %4, align 8
  %89 = load i32, ptr %5, align 4
  %90 = add i32 %89, 7
  %91 = call ptr @proto_tree_add_item(ptr noundef %86, i32 noundef %87, ptr noundef %88, i32 noundef %90, i32 noundef 1, i32 noundef 0)
  %92 = load ptr, ptr %4, align 8
  %93 = load i32, ptr %5, align 4
  %94 = add i32 %93, 8
  %95 = call i32 @tvb_get_ntohl(ptr noundef %92, i32 noundef %94)
  %96 = udiv i32 %95, 100000
  %97 = zext i32 %96 to i64
  %98 = getelementptr inbounds nuw %struct.nstime_t, ptr %13, i32 0, i32 0
  store i64 %97, ptr %98, align 8
  %99 = load ptr, ptr %4, align 8
  %100 = load i32, ptr %5, align 4
  %101 = add i32 %100, 8
  %102 = call i32 @tvb_get_ntohl(ptr noundef %99, i32 noundef %101)
  %103 = urem i32 %102, 100000
  %104 = mul i32 %103, 1000
  %105 = getelementptr inbounds nuw %struct.nstime_t, ptr %13, i32 0, i32 1
  store i32 %104, ptr %105, align 8
  %106 = load ptr, ptr %7, align 8
  %107 = load i32, ptr @hf_gryphon_data_time, align 4
  %108 = load ptr, ptr %4, align 8
  %109 = load i32, ptr %5, align 4
  %110 = add i32 %109, 8
  %111 = call ptr @proto_tree_add_time(ptr noundef %106, i32 noundef %107, ptr noundef %108, i32 noundef %110, i32 noundef 4, ptr noundef %13)
  %112 = load ptr, ptr %7, align 8
  %113 = load i32, ptr @hf_gryphon_data_context, align 4
  %114 = load ptr, ptr %4, align 8
  %115 = load i32, ptr %5, align 4
  %116 = add i32 %115, 12
  %117 = call ptr @proto_tree_add_item(ptr noundef %112, i32 noundef %113, ptr noundef %114, i32 noundef %116, i32 noundef 1, i32 noundef 0)
  %118 = load ptr, ptr %7, align 8
  %119 = load i32, ptr @hf_gryphon_reserved, align 4
  %120 = load ptr, ptr %4, align 8
  %121 = load i32, ptr %5, align 4
  %122 = add i32 %121, 13
  %123 = call ptr @proto_tree_add_item(ptr noundef %118, i32 noundef %119, ptr noundef %120, i32 noundef %122, i32 noundef 3, i32 noundef 0)
  %124 = load i32, ptr %5, align 4
  %125 = add i32 %124, 16
  store i32 %125, ptr %5, align 4
  %126 = load ptr, ptr %6, align 8
  %127 = load ptr, ptr %4, align 8
  %128 = load i32, ptr %5, align 4
  %129 = load i32, ptr %11, align 4
  %130 = sub i32 %129, 16
  %131 = load i32, ptr %12, align 4
  %132 = sub i32 %130, %131
  %133 = load i32, ptr @ett_gryphon_data_body, align 4
  %134 = call ptr @proto_tree_add_subtree(ptr noundef %126, ptr noundef %127, i32 noundef %128, i32 noundef %132, i32 noundef %133, ptr noundef null, ptr noundef @.str.1112)
  store ptr %134, ptr %7, align 8
  %135 = load i32, ptr %8, align 4
  %136 = icmp ne i32 %135, 0
  br i1 %136, label %137, label %147

137:                                              ; preds = %3
  %138 = load ptr, ptr %7, align 8
  %139 = load i32, ptr @hf_gryphon_data_header_data, align 4
  %140 = load ptr, ptr %4, align 8
  %141 = load i32, ptr %5, align 4
  %142 = load i32, ptr %8, align 4
  %143 = call ptr @proto_tree_add_item(ptr noundef %138, i32 noundef %139, ptr noundef %140, i32 noundef %141, i32 noundef %142, i32 noundef 0)
  %144 = load i32, ptr %8, align 4
  %145 = load i32, ptr %5, align 4
  %146 = add i32 %145, %144
  store i32 %146, ptr %5, align 4
  br label %147

147:                                              ; preds = %137, %3
  %148 = load i32, ptr %9, align 4
  %149 = icmp ne i32 %148, 0
  br i1 %149, label %150, label %160

150:                                              ; preds = %147
  %151 = load ptr, ptr %7, align 8
  %152 = load i32, ptr @hf_gryphon_data_data, align 4
  %153 = load ptr, ptr %4, align 8
  %154 = load i32, ptr %5, align 4
  %155 = load i32, ptr %9, align 4
  %156 = call ptr @proto_tree_add_item(ptr noundef %151, i32 noundef %152, ptr noundef %153, i32 noundef %154, i32 noundef %155, i32 noundef 0)
  %157 = load i32, ptr %9, align 4
  %158 = load i32, ptr %5, align 4
  %159 = add i32 %158, %157
  store i32 %159, ptr %5, align 4
  br label %160

160:                                              ; preds = %150, %147
  %161 = load i32, ptr %10, align 4
  %162 = icmp ne i32 %161, 0
  br i1 %162, label %163, label %173

163:                                              ; preds = %160
  %164 = load ptr, ptr %7, align 8
  %165 = load i32, ptr @hf_gryphon_data_extra_data, align 4
  %166 = load ptr, ptr %4, align 8
  %167 = load i32, ptr %5, align 4
  %168 = load i32, ptr %10, align 4
  %169 = call ptr @proto_tree_add_item(ptr noundef %164, i32 noundef %165, ptr noundef %166, i32 noundef %167, i32 noundef %168, i32 noundef 0)
  %170 = load i32, ptr %10, align 4
  %171 = load i32, ptr %5, align 4
  %172 = add i32 %171, %170
  store i32 %172, ptr %5, align 4
  br label %173

173:                                              ; preds = %163, %160
  %174 = load i32, ptr %12, align 4
  %175 = icmp ne i32 %174, 0
  br i1 %175, label %176, label %186

176:                                              ; preds = %173
  %177 = load ptr, ptr %7, align 8
  %178 = load i32, ptr @hf_gryphon_data_padding, align 4
  %179 = load ptr, ptr %4, align 8
  %180 = load i32, ptr %5, align 4
  %181 = load i32, ptr %12, align 4
  %182 = call ptr @proto_tree_add_item(ptr noundef %177, i32 noundef %178, ptr noundef %179, i32 noundef %180, i32 noundef %181, i32 noundef 0)
  %183 = load i32, ptr %12, align 4
  %184 = load i32, ptr %5, align 4
  %185 = add i32 %184, %183
  store i32 %185, ptr %5, align 4
  br label %186

186:                                              ; preds = %176, %173
  %187 = load i32, ptr %5, align 4
  call void @llvm.lifetime.end.p0(i64 16, ptr %13) #7
  call void @llvm.lifetime.end.p0(i64 4, ptr %12) #7
  call void @llvm.lifetime.end.p0(i64 4, ptr %11) #7
  call void @llvm.lifetime.end.p0(i64 4, ptr %10) #7
  call void @llvm.lifetime.end.p0(i64 4, ptr %9) #7
  call void @llvm.lifetime.end.p0(i64 4, ptr %8) #7
  call void @llvm.lifetime.end.p0(i64 8, ptr %7) #7
  ret i32 %187
}