; Function Attrs: null_pointer_is_valid sspstrong uwtable
define internal fastcc i32 @decode_data(ptr noundef %0, i32 noundef %1, ptr noundef %2) unnamed_addr #0 {
  %4 = alloca %struct.nstime_t, align 8
  call void @llvm.lifetime.start.p0(i64 16, ptr nonnull %4) #5
  %5 = tail call zeroext i8 @tvb_get_uint8(ptr noundef %0, i32 noundef %1)
  %6 = zext i8 %5 to i32
  %7 = add i32 %1, 2
  %8 = tail call zeroext i16 @tvb_get_ntohs(ptr noundef %0, i32 noundef %7)
  %9 = zext i16 %8 to i32
  %10 = add i32 %1, 4
  %11 = tail call zeroext i8 @tvb_get_uint8(ptr noundef %0, i32 noundef %10)
  %12 = zext i8 %11 to i32
  %13 = add nuw nsw i32 %9, %6
  %14 = add nuw nsw i32 %13, %12
  %15 = add nuw nsw i32 %14, 3
  %16 = and i32 %15, 3
  %17 = xor i32 %16, 3
  %18 = load i32, ptr @ett_gryphon_data_header, align 4
  %19 = tail call ptr @proto_tree_add_subtree(ptr noundef %2, ptr noundef %0, i32 noundef %1, i32 noundef 16, i32 noundef %18, ptr noundef null, ptr noundef nonnull @.str.1111)
  %20 = load i32, ptr @hf_gryphon_data_header_length, align 4
  %21 = tail call ptr @proto_tree_add_item(ptr noundef %19, i32 noundef %20, ptr noundef %0, i32 noundef %1, i32 noundef 1, i32 noundef 0)
  %22 = load i32, ptr @hf_gryphon_data_header_length_bits, align 4
  %23 = add i32 %1, 1
  %24 = tail call ptr @proto_tree_add_item(ptr noundef %19, i32 noundef %22, ptr noundef %0, i32 noundef %23, i32 noundef 1, i32 noundef 0)
  %25 = load i32, ptr @hf_gryphon_data_data_length, align 4
  %26 = tail call ptr @proto_tree_add_item(ptr noundef %19, i32 noundef %25, ptr noundef %0, i32 noundef %7, i32 noundef 2, i32 noundef 0)
  %27 = load i32, ptr @hf_gryphon_data_extra_data_length, align 4
  %28 = tail call ptr @proto_tree_add_item(ptr noundef %19, i32 noundef %27, ptr noundef %0, i32 noundef %10, i32 noundef 1, i32 noundef 0)
  %29 = add i32 %1, 5
  %30 = load i32, ptr @hf_gryphon_data_mode, align 4
  %31 = load i32, ptr @ett_gryphon_flags, align 4
  %32 = tail call ptr @proto_tree_add_bitmask(ptr noundef %19, ptr noundef %0, i32 noundef %29, i32 noundef %30, i32 noundef %31, ptr noundef nonnull @decode_data.data_mode_flags, i32 noundef 0)
  %33 = load i32, ptr @hf_gryphon_data_priority, align 4
  %34 = add i32 %1, 6
  %35 = tail call ptr @proto_tree_add_item(ptr noundef %19, i32 noundef %33, ptr noundef %0, i32 noundef %34, i32 noundef 1, i32 noundef 0)
  %36 = load i32, ptr @hf_gryphon_data_error_status, align 4
  %37 = add i32 %1, 7
  %38 = tail call ptr @proto_tree_add_item(ptr noundef %19, i32 noundef %36, ptr noundef %0, i32 noundef %37, i32 noundef 1, i32 noundef 0)
  %39 = add i32 %1, 8
  %40 = tail call i32 @tvb_get_ntohl(ptr noundef %0, i32 noundef %39)
  %41 = udiv i32 %40, 100000
  %42 = zext nneg i32 %41 to i64
  store i64 %42, ptr %4, align 8
  %43 = tail call i32 @tvb_get_ntohl(ptr noundef %0, i32 noundef %39)
  %44 = urem i32 %43, 100000
  %45 = mul nuw nsw i32 %44, 1000
  %46 = getelementptr inbounds nuw i8, ptr %4, i64 8
  store i32 %45, ptr %46, align 8
  %47 = load i32, ptr @hf_gryphon_data_time, align 4
  %48 = call ptr @proto_tree_add_time(ptr noundef %19, i32 noundef %47, ptr noundef %0, i32 noundef %39, i32 noundef 4, ptr noundef nonnull %4)
  %49 = load i32, ptr @hf_gryphon_data_context, align 4
  %50 = add i32 %1, 12
  %51 = call ptr @proto_tree_add_item(ptr noundef %19, i32 noundef %49, ptr noundef %0, i32 noundef %50, i32 noundef 1, i32 noundef 0)
  %52 = load i32, ptr @hf_gryphon_reserved, align 4
  %53 = add i32 %1, 13
  %54 = call ptr @proto_tree_add_item(ptr noundef %19, i32 noundef %52, ptr noundef %0, i32 noundef %53, i32 noundef 3, i32 noundef 0)
  %55 = add i32 %1, 16
  %56 = load i32, ptr @ett_gryphon_data_body, align 4
  %57 = call ptr @proto_tree_add_subtree(ptr noundef %2, ptr noundef %0, i32 noundef %55, i32 noundef %14, i32 noundef %56, ptr noundef null, ptr noundef nonnull @.str.1112)
  %.not = icmp eq i8 %5, 0
  br i1 %.not, label %62, label %58

58:                                               ; preds = %3
  %59 = load i32, ptr @hf_gryphon_data_header_data, align 4
  %60 = call ptr @proto_tree_add_item(ptr noundef %57, i32 noundef %59, ptr noundef %0, i32 noundef %55, i32 noundef %6, i32 noundef 0)
  %61 = add i32 %55, %6
  br label %62

62:                                               ; preds = %58, %3
  %.0 = phi i32 [ %61, %58 ], [ %55, %3 ]
  %.not88 = icmp eq i16 %8, 0
  br i1 %.not88, label %67, label %63

63:                                               ; preds = %62
  %64 = load i32, ptr @hf_gryphon_data_data, align 4
  %65 = call ptr @proto_tree_add_item(ptr noundef %57, i32 noundef %64, ptr noundef %0, i32 noundef %.0, i32 noundef %9, i32 noundef 0)
  %66 = add i32 %.0, %9
  br label %67

67:                                               ; preds = %63, %62
  %.1 = phi i32 [ %66, %63 ], [ %.0, %62 ]
  %.not89 = icmp eq i8 %11, 0
  br i1 %.not89, label %72, label %68

68:                                               ; preds = %67
  %69 = load i32, ptr @hf_gryphon_data_extra_data, align 4
  %70 = call ptr @proto_tree_add_item(ptr noundef %57, i32 noundef %69, ptr noundef %0, i32 noundef %.1, i32 noundef %12, i32 noundef 0)
  %71 = add i32 %.1, %12
  br label %72

72:                                               ; preds = %68, %67
  %.2 = phi i32 [ %71, %68 ], [ %.1, %67 ]
  %73 = and i32 %14, 3
  %.not90 = icmp eq i32 %73, 0
  br i1 %.not90, label %78, label %74

74:                                               ; preds = %72
  %75 = load i32, ptr @hf_gryphon_data_padding, align 4
  %76 = call ptr @proto_tree_add_item(ptr noundef %57, i32 noundef %75, ptr noundef %0, i32 noundef %.2, i32 noundef %17, i32 noundef 0)
  %77 = add i32 %.2, %17
  br label %78

78:                                               ; preds = %74, %72
  %.3 = phi i32 [ %77, %74 ], [ %.2, %72 ]
  call void @llvm.lifetime.end.p0(i64 16, ptr nonnull %4) #5
  ret i32 %.3
}